target datalayout = "e-m:e-p270:32:32-p271:32:32-p272:64:64-i64:64-i128:128-f80:128-n8:16:32:64-S128"
target triple = "x86_64-pc-linux-gnu"

%struct.LexState = type { ptr, ptr, %union.TValue, %union.TValue, ptr, ptr, i32, i32, i32, %struct.SBuf, ptr, ptr, i32, i32, ptr, ptr, ptr, ptr, i32, i32, ptr, i32, i32, i32, i32 }
%union.TValue = type { i64 }
%struct.SBuf = type { ptr, ptr, ptr, %struct.MRef }
%struct.MRef = type { i64 }
%struct.FuncState = type { ptr, ptr, ptr, ptr, ptr, i32, i32, i32, i32, i32, i32, i32, i32, ptr, i32, i32, i8, i8, i8, i8, [200 x i16], [60 x i16], [60 x i16] }
%struct.lua_State = type { %struct.GCRef, i8, i8, i8, i8, %struct.MRef, %struct.GCRef, ptr, ptr, %struct.MRef, %struct.MRef, %struct.GCRef, %struct.GCRef, ptr, i32 }
%struct.GCRef = type { i64 }
%struct.FuncScope = type { ptr, i32, i8, i8 }

@.str = private unnamed_addr constant [24 x i8] c"store to dead GC object\00", align 1

; Function Attrs: alwaysinline nounwind uwtable
define internal void @checklivetv(ptr noundef %0, ptr noundef %1, ptr noundef %2) #4 {
  %4 = alloca ptr, align 8
  %5 = alloca ptr, align 8
  %6 = alloca ptr, align 8
  store ptr %0, ptr %4, align 8, !tbaa !23
  store ptr %1, ptr %5, align 8, !tbaa !30
  store ptr %2, ptr %6, align 8, !tbaa !9
  ret void
}

; Function Attrs: alwaysinline nounwind uwtable
define internal void @setgcVraw(ptr noundef %0, ptr noundef %1, i32 noundef %2) #4 {
  %4 = alloca ptr, align 8
  %5 = alloca ptr, align 8
  %6 = alloca i32, align 4
  store ptr %0, ptr %4, align 8, !tbaa !30
  store ptr %1, ptr %5, align 8, !tbaa !103
  store i32 %2, ptr %6, align 4, !tbaa !79
  %7 = load ptr, ptr %5, align 8, !tbaa !103
  %8 = ptrtoint ptr %7 to i64
  %9 = load i32, ptr %6, align 4, !tbaa !79
  %10 = zext i32 %9 to i64
  %11 = shl i64 %10, 47
  %12 = or i64 %8, %11
  %13 = load ptr, ptr %4, align 8, !tbaa !30
  %14 = getelementptr inbounds nuw %struct.GCRef, ptr %13, i32 0, i32 0
  store i64 %12, ptr %14, align 8, !tbaa !32
  ret void
}

; Function Attrs: alwaysinline nounwind uwtable
define internal void @settabV(ptr noundef %0, ptr noundef %1, ptr noundef %2) #4 {
  %4 = alloca ptr, align 8
  %5 = alloca ptr, align 8
  %6 = alloca ptr, align 8
  store ptr %0, ptr %4, align 8, !tbaa !23
  store ptr %1, ptr %5, align 8, !tbaa !30
  store ptr %2, ptr %6, align 8, !tbaa !105
  %7 = load ptr, ptr %4, align 8, !tbaa !23
  %8 = load ptr, ptr %5, align 8, !tbaa !30
  %9 = load ptr, ptr %6, align 8, !tbaa !105
  call void @setgcV(ptr noundef %7, ptr noundef %8, ptr noundef %9, i32 noundef -12)
  ret void
}

; Function Attrs: alwaysinline nounwind uwtable
define internal void @setgcV(ptr noundef %0, ptr noundef %1, ptr noundef %2, i32 noundef %3) #4 {
  %5 = alloca ptr, align 8
  %6 = alloca ptr, align 8
  %7 = alloca ptr, align 8
  %8 = alloca i32, align 4
  store ptr %0, ptr %5, align 8, !tbaa !23
  store ptr %1, ptr %6, align 8, !tbaa !30
  store ptr %2, ptr %7, align 8, !tbaa !103
  store i32 %3, ptr %8, align 4, !tbaa !79
  %9 = load ptr, ptr %6, align 8, !tbaa !30
  %10 = load ptr, ptr %7, align 8, !tbaa !103
  %11 = load i32, ptr %8, align 4, !tbaa !79
  call void @setgcVraw(ptr noundef %9, ptr noundef %10, i32 noundef %11)
  %12 = load ptr, ptr %5, align 8, !tbaa !23
  %13 = load ptr, ptr %6, align 8, !tbaa !30
  call void @checklivetv(ptr noundef %12, ptr noundef %13, ptr noundef @.str)
  ret void
}

; Function Attrs: nounwind uwtable
define internal void @fscope_begin(ptr noundef %0, ptr noundef %1, i32 noundef %2) #0 {
  %4 = alloca ptr, align 8
  %5 = alloca ptr, align 8
  %6 = alloca i32, align 4
  store ptr %0, ptr %4, align 8, !tbaa !62
  store ptr %1, ptr %5, align 8, !tbaa !78
  store i32 %2, ptr %6, align 4, !tbaa !79
  %7 = load ptr, ptr %4, align 8, !tbaa !62
  %8 = getelementptr inbounds nuw %struct.FuncState, ptr %7, i32 0, i32 9
  %9 = load i32, ptr %8, align 8, !tbaa !74
  %10 = trunc i32 %9 to i8
  %11 = load ptr, ptr %5, align 8, !tbaa !78
  %12 = getelementptr inbounds nuw %struct.FuncScope, ptr %11, i32 0, i32 2
  store i8 %10, ptr %12, align 4, !tbaa !80
  %13 = load i32, ptr %6, align 4, !tbaa !79
  %14 = trunc i32 %13 to i8
  %15 = load ptr, ptr %5, align 8, !tbaa !78
  %16 = getelementptr inbounds nuw %struct.FuncScope, ptr %15, i32 0, i32 3
  store i8 %14, ptr %16, align 1, !tbaa !82
  %17 = load ptr, ptr %4, align 8, !tbaa !62
  %18 = getelementptr inbounds nuw %struct.FuncState, ptr %17, i32 0, i32 1
  %19 = load ptr, ptr %18, align 8, !tbaa !64
  %20 = getelementptr inbounds nuw %struct.LexState, ptr %19, i32 0, i32 19
  %21 = load i32, ptr %20, align 4, !tbaa !65
  %22 = load ptr, ptr %5, align 8, !tbaa !78
  %23 = getelementptr inbounds nuw %struct.FuncScope, ptr %22, i32 0, i32 1
  store i32 %21, ptr %23, align 8, !tbaa !83
  %24 = load ptr, ptr %4, align 8, !tbaa !62
  %25 = getelementptr inbounds nuw %struct.FuncState, ptr %24, i32 0, i32 3
  %26 = load ptr, ptr %25, align 8, !tbaa !76
  %27 = load ptr, ptr %5, align 8, !tbaa !78
  %28 = getelementptr inbounds nuw %struct.FuncScope, ptr %27, i32 0, i32 0
  store ptr %26, ptr %28, align 8, !tbaa !84
  %29 = load ptr, ptr %5, align 8, !tbaa !78
  %30 = load ptr, ptr %4, align 8, !tbaa !62
  %31 = getelementptr inbounds nuw %struct.FuncState, ptr %30, i32 0, i32 3
  store ptr %29, ptr %31, align 8, !tbaa !76
  ret void
}

; Function Attrs: nounwind uwtable
define internal void @fs_init(ptr noundef %0, ptr noundef %1) #0 {
  %3 = alloca ptr, align 8
  %4 = alloca ptr, align 8
  %5 = alloca ptr, align 8
  store ptr %0, ptr %3, align 8, !tbaa !4
  store ptr %1, ptr %4, align 8, !tbaa !62
  call void @llvm.lifetime.start.p0(i64 8, ptr %5) #11
  %6 = load ptr, ptr %3, align 8, !tbaa !4
  %7 = getelementptr inbounds nuw %struct.LexState, ptr %6, i32 0, i32 1
  %8 = load ptr, ptr %7, align 8, !tbaa !13
  store ptr %8, ptr %5, align 8, !tbaa !23
  %9 = load ptr, ptr %3, align 8, !tbaa !4
  %10 = getelementptr inbounds nuw %struct.LexState, ptr %9, i32 0, i32 0
  %11 = load ptr, ptr %10, align 8, !tbaa !25
  %12 = load ptr, ptr %4, align 8, !tbaa !62
  %13 = getelementptr inbounds nuw %struct.FuncState, ptr %12, i32 0, i32 4
  store ptr %11, ptr %13, align 8, !tbaa !63
  %14 = load ptr, ptr %4, align 8, !tbaa !62
  %15 = load ptr, ptr %3, align 8, !tbaa !4
  %16 = getelementptr inbounds nuw %struct.LexState, ptr %15, i32 0, i32 0
  store ptr %14, ptr %16, align 8, !tbaa !25
  %17 = load ptr, ptr %3, align 8, !tbaa !4
  %18 = load ptr, ptr %4, align 8, !tbaa !62
  %19 = getelementptr inbounds nuw %struct.FuncState, ptr %18, i32 0, i32 1
  store ptr %17, ptr %19, align 8, !tbaa !64
  %20 = load ptr, ptr %3, align 8, !tbaa !4
  %21 = getelementptr inbounds nuw %struct.LexState, ptr %20, i32 0, i32 19
  %22 = load i32, ptr %21, align 4, !tbaa !65
  %23 = load ptr, ptr %4, align 8, !tbaa !62
  %24 = getelementptr inbounds nuw %struct.FuncState, ptr %23, i32 0, i32 15
  store i32 %22, ptr %24, align 4, !tbaa !66
  %25 = load ptr, ptr %5, align 8, !tbaa !23
  %26 = load ptr, ptr %4, align 8, !tbaa !62
  %27 = getelementptr inbounds nuw %struct.FuncState, ptr %26, i32 0, i32 2
  store ptr %25, ptr %27, align 8, !tbaa !67
  %28 = load ptr, ptr %4, align 8, !tbaa !62
  %29 = getelementptr inbounds nuw %struct.FuncState, ptr %28, i32 0, i32 5
  store i32 0, ptr %29, align 8, !tbaa !68
  %30 = load ptr, ptr %4, align 8, !tbaa !62
  %31 = getelementptr inbounds nuw %struct.FuncState, ptr %30, i32 0, i32 6
  store i32 0, ptr %31, align 4, !tbaa !69
  %32 = load ptr, ptr %4, align 8, !tbaa !62
  %33 = getelementptr inbounds nuw %struct.FuncState, ptr %32, i32 0, i32 7
  store i32 -1, ptr %33, align 8, !tbaa !70
  %34 = load ptr, ptr %4, align 8, !tbaa !62
  %35 = getelementptr inbounds nuw %struct.FuncState, ptr %34, i32 0, i32 8
  store i32 0, ptr %35, align 4, !tbaa !71
  %36 = load ptr, ptr %4, align 8, !tbaa !62
  %37 = getelementptr inbounds nuw %struct.FuncState, ptr %36, i32 0, i32 11
  store i32 0, ptr %37, align 8, !tbaa !72
  %38 = load ptr, ptr %4, align 8, !tbaa !62
  %39 = getelementptr inbounds nuw %struct.FuncState, ptr %38, i32 0, i32 10
  store i32 0, ptr %39, align 4, !tbaa !73
  %40 = load ptr, ptr %4, align 8, !tbaa !62
  %41 = getelementptr inbounds nuw %struct.FuncState, ptr %40, i32 0, i32 9
  store i32 0, ptr %41, align 8, !tbaa !74
  %42 = load ptr, ptr %4, align 8, !tbaa !62
  %43 = getelementptr inbounds nuw %struct.FuncState, ptr %42, i32 0, i32 19
  store i8 0, ptr %43, align 1, !tbaa !75
  %44 = load ptr, ptr %4, align 8, !tbaa !62
  %45 = getelementptr inbounds nuw %struct.FuncState, ptr %44, i32 0, i32 3
  store ptr null, ptr %45, align 8, !tbaa !76
  %46 = load ptr, ptr %4, align 8, !tbaa !62
  %47 = getelementptr inbounds nuw %struct.FuncState, ptr %46, i32 0, i32 16
  store i8 0, ptr %47, align 8, !tbaa !57
  %48 = load ptr, ptr %4, align 8, !tbaa !62
  %49 = getelementptr inbounds nuw %struct.FuncState, ptr %48, i32 0, i32 18
  store i8 1, ptr %49, align 2, !tbaa !77
  %50 = load ptr, ptr %5, align 8, !tbaa !23
  %51 = call ptr @lj_tab_new(ptr noundef %50, i32 noundef 0, i32 noundef 0)
  %52 = load ptr, ptr %4, align 8, !tbaa !62
  %53 = getelementptr inbounds nuw %struct.FuncState, ptr %52, i32 0, i32 0
  store ptr %51, ptr %53, align 8, !tbaa !26
  %54 = load ptr, ptr %5, align 8, !tbaa !23
  %55 = load ptr, ptr %5, align 8, !tbaa !23
  %56 = getelementptr inbounds nuw %struct.lua_State, ptr %55, i32 0, i32 8
  %57 = load ptr, ptr %56, align 8, !tbaa !50
  %58 = load ptr, ptr %4, align 8, !tbaa !62
  %59 = getelementptr inbounds nuw %struct.FuncState, ptr %58, i32 0, i32 0
  %60 = load ptr, ptr %59, align 8, !tbaa !26
  call void @settabV(ptr noundef %54, ptr noundef %57, ptr noundef %60)
  %61 = load ptr, ptr %5, align 8, !tbaa !23
  %62 = getelementptr inbounds nuw %struct.lua_State, ptr %61, i32 0, i32 8
  %63 = load ptr, ptr %62, align 8, !tbaa !50
  %64 = getelementptr inbounds nuw %union.TValue, ptr %63, i32 1
  store ptr %64, ptr %62, align 8, !tbaa !50
  %65 = load ptr, ptr %5, align 8, !tbaa !23
  %66 = getelementptr inbounds nuw %struct.lua_State, ptr %65, i32 0, i32 9
  %67 = getelementptr inbounds nuw %struct.MRef, ptr %66, i32 0, i32 0
  %68 = load i64, ptr %67, align 8, !tbaa !51
  %69 = inttoptr i64 %68 to ptr
  %70 = icmp uge ptr %64, %69
  br i1 %70, label %71, label %73

71:                                               ; preds = %2
  %72 = load ptr, ptr %5, align 8, !tbaa !23
  call void @lj_state_growstack1(ptr noundef %72)
  br label %73

73:                                               ; preds = %71, %2
  call void @llvm.lifetime.end.p0(i64 8, ptr %5) #11
  ret void
}

; Function Attrs: alwaysinline nounwind uwtable
define internal void @setstrV(ptr noundef %0, ptr noundef %1, ptr noundef %2) #4 {
  %4 = alloca ptr, align 8
  %5 = alloca ptr, align 8
  %6 = alloca ptr, align 8
  store ptr %0, ptr %4, align 8, !tbaa !23
  store ptr %1, ptr %5, align 8, !tbaa !30
  store ptr %2, ptr %6, align 8, !tbaa !24
  %7 = load ptr, ptr %4, align 8, !tbaa !23
  %8 = load ptr, ptr %5, align 8, !tbaa !30
  %9 = load ptr, ptr %6, align 8, !tbaa !24
  call void @setgcV(ptr noundef %7, ptr noundef %8, ptr noundef %9, i32 noundef -5)
  ret void
}

; Function Attrs: nounwind uwtable
define hidden ptr @lj_parse(ptr noundef %0) #0 {
  %2 = alloca ptr, align 8
  %3 = alloca %struct.FuncState, align 8
  %4 = alloca %struct.FuncScope, align 8
  %5 = alloca ptr, align 8
  %6 = alloca ptr, align 8
  store ptr %0, ptr %2, align 8, !tbaa !4
  call void @llvm.lifetime.start.p0(i64 736, ptr %3) #11
  call void @llvm.lifetime.start.p0(i64 16, ptr %4) #11
  call void @llvm.lifetime.start.p0(i64 8, ptr %5) #11
  call void @llvm.lifetime.start.p0(i64 8, ptr %6) #11
  %7 = load ptr, ptr %2, align 8, !tbaa !4
  %8 = getelementptr inbounds nuw %struct.LexState, ptr %7, i32 0, i32 1
  %9 = load ptr, ptr %8, align 8, !tbaa !13
  store ptr %9, ptr %6, align 8, !tbaa !23
  %10 = load ptr, ptr %6, align 8, !tbaa !23
  %11 = load ptr, ptr %2, align 8, !tbaa !4
  %12 = getelementptr inbounds nuw %struct.LexState, ptr %11, i32 0, i32 15
  %13 = load ptr, ptr %12, align 8, !tbaa !48
  %14 = load ptr, ptr %2, align 8, !tbaa !4
  %15 = getelementptr inbounds nuw %struct.LexState, ptr %14, i32 0, i32 15
  %16 = load ptr, ptr %15, align 8, !tbaa !48
  %17 = call i64 @strlen(ptr noundef %16) #12
  %18 = call ptr @lj_str_new(ptr noundef %10, ptr noundef %13, i64 noundef %17)
  %19 = load ptr, ptr %2, align 8, !tbaa !4
  %20 = getelementptr inbounds nuw %struct.LexState, ptr %19, i32 0, i32 14
  store ptr %18, ptr %20, align 8, !tbaa !49
  %21 = load ptr, ptr %6, align 8, !tbaa !23
  %22 = load ptr, ptr %6, align 8, !tbaa !23
  %23 = getelementptr inbounds nuw %struct.lua_State, ptr %22, i32 0, i32 8
  %24 = load ptr, ptr %23, align 8, !tbaa !50
  %25 = load ptr, ptr %2, align 8, !tbaa !4
  %26 = getelementptr inbounds nuw %struct.LexState, ptr %25, i32 0, i32 14
  %27 = load ptr, ptr %26, align 8, !tbaa !49
  call void @setstrV(ptr noundef %21, ptr noundef %24, ptr noundef %27)
  %28 = load ptr, ptr %6, align 8, !tbaa !23
  %29 = getelementptr inbounds nuw %struct.lua_State, ptr %28, i32 0, i32 8
  %30 = load ptr, ptr %29, align 8, !tbaa !50
  %31 = getelementptr inbounds nuw %union.TValue, ptr %30, i32 1
  store ptr %31, ptr %29, align 8, !tbaa !50
  %32 = load ptr, ptr %6, align 8, !tbaa !23
  %33 = getelementptr inbounds nuw %struct.lua_State, ptr %32, i32 0, i32 9
  %34 = getelementptr inbounds nuw %struct.MRef, ptr %33, i32 0, i32 0
  %35 = load i64, ptr %34, align 8, !tbaa !51
  %36 = inttoptr i64 %35 to ptr
  %37 = icmp uge ptr %31, %36
  br i1 %37, label %38, label %40

38:                                               ; preds = %1
  %39 = load ptr, ptr %6, align 8, !tbaa !23
  call void @lj_state_growstack1(ptr noundef %39)
  br label %40

40:                                               ; preds = %38, %1
  %41 = load ptr, ptr %2, align 8, !tbaa !4
  %42 = getelementptr inbounds nuw %struct.LexState, ptr %41, i32 0, i32 22
  store i32 0, ptr %42, align 4, !tbaa !52
  %43 = load ptr, ptr %2, align 8, !tbaa !4
  call void @fs_init(ptr noundef %43, ptr noundef %3)
  %44 = getelementptr inbounds nuw %struct.FuncState, ptr %3, i32 0, i32 12
  store i32 0, ptr %44, align 4, !tbaa !53
  %45 = getelementptr inbounds nuw %struct.FuncState, ptr %3, i32 0, i32 17
  store i8 0, ptr %45, align 1, !tbaa !54
  %46 = getelementptr inbounds nuw %struct.FuncState, ptr %3, i32 0, i32 13
  store ptr null, ptr %46, align 8, !tbaa !55
  %47 = getelementptr inbounds nuw %struct.FuncState, ptr %3, i32 0, i32 14
  store i32 0, ptr %47, align 8, !tbaa !56
  %48 = getelementptr inbounds nuw %struct.FuncState, ptr %3, i32 0, i32 16
  %49 = load i8, ptr %48, align 8, !tbaa !57
  %50 = zext i8 %49 to i32
  %51 = or i32 %50, 2
  %52 = trunc i32 %51 to i8
  store i8 %52, ptr %48, align 8, !tbaa !57
  call void @fscope_begin(ptr noundef %3, ptr noundef %4, i32 noundef 0)
  %53 = call i32 @bcemit_INS(ptr noundef %3, i32 noundef 92)
  %54 = load ptr, ptr %2, align 8, !tbaa !4
  call void @lj_lex_next(ptr noundef %54)
  %55 = load ptr, ptr %2, align 8, !tbaa !4
  call void @parse_chunk(ptr noundef %55)
  %56 = load ptr, ptr %2, align 8, !tbaa !4
  %57 = getelementptr inbounds nuw %struct.LexState, ptr %56, i32 0, i32 7
  %58 = load i32, ptr %57, align 4, !tbaa !58
  %59 = icmp ne i32 %58, 289
  br i1 %59, label %60, label %62

60:                                               ; preds = %40
  %61 = load ptr, ptr %2, align 8, !tbaa !4
  call void @err_token(ptr noundef %61, i32 noundef 289) #13
  unreachable

62:                                               ; preds = %40
  %63 = load ptr, ptr %2, align 8, !tbaa !4
  %64 = load ptr, ptr %2, align 8, !tbaa !4
  %65 = getelementptr inbounds nuw %struct.LexState, ptr %64, i32 0, i32 12
  %66 = load i32, ptr %65, align 8, !tbaa !59
  %67 = call ptr @fs_finish(ptr noundef %63, i32 noundef %66)
  store ptr %67, ptr %5, align 8, !tbaa !60
  %68 = load ptr, ptr %6, align 8, !tbaa !23
  %69 = getelementptr inbounds nuw %struct.lua_State, ptr %68, i32 0, i32 8
  %70 = load ptr, ptr %69, align 8, !tbaa !50
  %71 = getelementptr inbounds %union.TValue, ptr %70, i32 -1
  store ptr %71, ptr %69, align 8, !tbaa !50
  %72 = load ptr, ptr %5, align 8, !tbaa !60
  call void @llvm.lifetime.end.p0(i64 8, ptr %6) #11
  call void @llvm.lifetime.end.p0(i64 8, ptr %5) #11
  call void @llvm.lifetime.end.p0(i64 16, ptr %4) #11
  call void @llvm.lifetime.end.p0(i64 736, ptr %3) #11
  ret ptr %72
}