; Function Attrs: nounwind uwtable
define hidden ptr @lj_parse(ptr noundef initializes((120, 128), (172, 176)) %0) local_unnamed_addr #0 {
  %2 = alloca %struct.FuncState, align 8
  %3 = alloca %struct.FuncScope, align 8
  call void @llvm.lifetime.start.p0(i64 736, ptr nonnull %2) #11
  call void @llvm.lifetime.start.p0(i64 16, ptr nonnull %3) #11
  %4 = getelementptr inbounds nuw i8, ptr %0, i64 8
  %5 = load ptr, ptr %4, align 8, !tbaa !4
  %6 = getelementptr inbounds nuw i8, ptr %0, i64 128
  %7 = load ptr, ptr %6, align 8, !tbaa !41
  %8 = tail call i64 @strlen(ptr noundef nonnull dereferenceable(1) %7) #12
  %9 = tail call ptr @lj_str_new(ptr noundef %5, ptr noundef nonnull %7, i64 noundef %8) #11
  %10 = getelementptr inbounds nuw i8, ptr %0, i64 120
  store ptr %9, ptr %10, align 8, !tbaa !42
  %11 = getelementptr inbounds nuw i8, ptr %5, i64 40
  %12 = load ptr, ptr %11, align 8, !tbaa !43
  %13 = ptrtoint ptr %9 to i64
  %14 = or i64 %13, -703687441776640
  store i64 %14, ptr %12, align 8, !tbaa !25
  %15 = load ptr, ptr %11, align 8, !tbaa !43
  %16 = getelementptr inbounds nuw i8, ptr %15, i64 8
  store ptr %16, ptr %11, align 8, !tbaa !43
  %17 = getelementptr inbounds nuw i8, ptr %5, i64 48
  %18 = load i64, ptr %17, align 8, !tbaa !44
  %19 = inttoptr i64 %18 to ptr
  %.not = icmp ult ptr %16, %19
  br i1 %.not, label %21, label %20

20:                                               ; preds = %1
  tail call void @lj_state_growstack1(ptr noundef nonnull %5) #11
  br label %21

21:                                               ; preds = %20, %1
  %22 = getelementptr inbounds nuw i8, ptr %0, i64 172
  store i32 0, ptr %22, align 4, !tbaa !45
  %23 = load ptr, ptr %4, align 8, !tbaa !4
  %24 = load ptr, ptr %0, align 8, !tbaa !19
  %25 = getelementptr inbounds nuw i8, ptr %2, i64 32
  store ptr %24, ptr %25, align 8, !tbaa !46
  store ptr %2, ptr %0, align 8, !tbaa !19
  %26 = getelementptr inbounds nuw i8, ptr %2, i64 8
  store ptr %0, ptr %26, align 8, !tbaa !47
  %27 = getelementptr inbounds nuw i8, ptr %0, i64 156
  %28 = load i32, ptr %27, align 4, !tbaa !48
  %29 = getelementptr inbounds nuw i8, ptr %2, i64 84
  store i32 %28, ptr %29, align 4, !tbaa !49
  %30 = getelementptr inbounds nuw i8, ptr %2, i64 16
  store ptr %23, ptr %30, align 8, !tbaa !50
  %31 = getelementptr inbounds nuw i8, ptr %2, i64 40
  store i32 0, ptr %31, align 8, !tbaa !51
  %32 = getelementptr inbounds nuw i8, ptr %2, i64 44
  store i32 0, ptr %32, align 4, !tbaa !52
  %33 = getelementptr inbounds nuw i8, ptr %2, i64 48
  store i32 -1, ptr %33, align 8, !tbaa !53
  %34 = getelementptr inbounds nuw i8, ptr %2, i64 52
  %35 = getelementptr inbounds nuw i8, ptr %2, i64 91
  store i8 0, ptr %35, align 1, !tbaa !54
  %36 = getelementptr inbounds nuw i8, ptr %2, i64 24
  store ptr null, ptr %36, align 8, !tbaa !55
  %37 = getelementptr inbounds nuw i8, ptr %2, i64 88
  store i8 0, ptr %37, align 8, !tbaa !56
  %38 = getelementptr inbounds nuw i8, ptr %2, i64 90
  call void @llvm.memset.p0.i64(ptr noundef nonnull align 4 dereferenceable(16) %34, i8 0, i64 16, i1 false)
  store i8 1, ptr %38, align 2, !tbaa !57
  %39 = call ptr @lj_tab_new(ptr noundef %23, i32 noundef 0, i32 noundef 0) #11
  store ptr %39, ptr %2, align 8, !tbaa !20
  %40 = getelementptr inbounds nuw i8, ptr %23, i64 40
  %41 = load ptr, ptr %40, align 8, !tbaa !43
  %42 = ptrtoint ptr %39 to i64
  %43 = or i64 %42, -1688849860263936
  store i64 %43, ptr %41, align 8, !tbaa !25
  %44 = load ptr, ptr %40, align 8, !tbaa !43
  %45 = getelementptr inbounds nuw i8, ptr %44, i64 8
  store ptr %45, ptr %40, align 8, !tbaa !43
  %46 = getelementptr inbounds nuw i8, ptr %23, i64 48
  %47 = load i64, ptr %46, align 8, !tbaa !44
  %48 = inttoptr i64 %47 to ptr
  %.not.i = icmp ult ptr %45, %48
  br i1 %.not.i, label %fs_init.exit, label %49

49:                                               ; preds = %21
  call void @lj_state_growstack1(ptr noundef nonnull %23) #11
  br label %fs_init.exit

fs_init.exit:                                     ; preds = %21, %49
  %50 = getelementptr inbounds nuw i8, ptr %2, i64 68
  %51 = getelementptr inbounds nuw i8, ptr %2, i64 89
  store i8 0, ptr %51, align 1, !tbaa !58
  call void @llvm.memset.p0.i64(ptr noundef nonnull align 4 dereferenceable(16) %50, i8 0, i64 16, i1 false)
  %52 = load i8, ptr %37, align 8, !tbaa !56
  %53 = or i8 %52, 2
  store i8 %53, ptr %37, align 8, !tbaa !56
  %54 = getelementptr inbounds nuw i8, ptr %2, i64 56
  %55 = load i32, ptr %54, align 8, !tbaa !59
  %56 = trunc i32 %55 to i8
  %57 = getelementptr inbounds nuw i8, ptr %3, i64 12
  store i8 %56, ptr %57, align 4, !tbaa !60
  %58 = getelementptr inbounds nuw i8, ptr %3, i64 13
  store i8 0, ptr %58, align 1, !tbaa !62
  %59 = load ptr, ptr %26, align 8, !tbaa !47
  %60 = getelementptr inbounds nuw i8, ptr %59, i64 156
  %61 = load i32, ptr %60, align 4, !tbaa !48
  %62 = getelementptr inbounds nuw i8, ptr %3, i64 8
  store i32 %61, ptr %62, align 8, !tbaa !63
  %63 = load ptr, ptr %36, align 8, !tbaa !55
  store ptr %63, ptr %3, align 8, !tbaa !64
  store ptr %3, ptr %36, align 8, !tbaa !55
  %64 = call fastcc i32 @bcemit_INS(ptr noundef nonnull %2, i32 noundef 92)
  call void @lj_lex_next(ptr noundef nonnull %0) #11
  call fastcc void @parse_chunk(ptr noundef nonnull %0)
  %65 = getelementptr inbounds nuw i8, ptr %0, i64 52
  %66 = load i32, ptr %65, align 4, !tbaa !65
  %.not21 = icmp eq i32 %66, 289
  br i1 %.not21, label %68, label %67

67:                                               ; preds = %fs_init.exit
  call fastcc void @err_token(ptr noundef nonnull %0, i32 noundef 289) #13
  unreachable

68:                                               ; preds = %fs_init.exit
  %69 = getelementptr inbounds nuw i8, ptr %0, i64 112
  %70 = load i32, ptr %69, align 8, !tbaa !66
  %71 = call fastcc ptr @fs_finish(ptr noundef nonnull %0, i32 noundef %70)
  %72 = load ptr, ptr %11, align 8, !tbaa !43
  %73 = getelementptr inbounds i8, ptr %72, i64 -8
  store ptr %73, ptr %11, align 8, !tbaa !43
  call void @llvm.lifetime.end.p0(i64 16, ptr nonnull %3) #11
  call void @llvm.lifetime.end.p0(i64 736, ptr nonnull %2) #11
  ret ptr %71
}